; Function Attrs: mustprogress nounwind uwtable
define hidden void @_ZN9Assembler24emit_arith_operand_imm32Ei8Register7Addressi(ptr nocapture noundef nonnull readonly align 8 dereferenceable(40) %0, i32 noundef %1, i32 %2, ptr noundef %3, i32 noundef %4) local_unnamed_addr #0 align 2 {
  %6 = alloca %class.Address, align 8
  %7 = getelementptr inbounds i8, ptr %0, i64 8
  %8 = load ptr, ptr %7, align 8
  %.0.i.i = trunc i32 %1 to i8
  %9 = getelementptr inbounds i8, ptr %8, i64 16
  %10 = load ptr, ptr %9, align 8
  %11 = getelementptr inbounds i8, ptr %10, i64 1
  store i8 %.0.i.i, ptr %10, align 1
  store ptr %11, ptr %9, align 8
  call void @llvm.memcpy.p0.p0.i64(ptr noundef nonnull align 8 dereferenceable(21) %6, ptr noundef nonnull align 8 dereferenceable(21) %3, i64 21, i1 false)
  %12 = getelementptr inbounds i8, ptr %6, i64 24
  %13 = getelementptr inbounds i8, ptr %3, i64 24
  %14 = load ptr, ptr %13, align 8
  %15 = getelementptr inbounds i8, ptr %14, i64 16
  %16 = load ptr, ptr %15, align 8
  call void %16(ptr noundef nonnull align 8 dereferenceable(20) %13, ptr noundef nonnull align 8 dereferenceable(40) %12) #18
  %.sroa.01.0.copyload.i = load i32, ptr %6, align 8
  %17 = getelementptr inbounds i8, ptr %6, i64 4
  %.sroa.0.0.copyload.i = load i32, ptr %17, align 4
  %18 = getelementptr inbounds i8, ptr %6, i64 12
  %19 = load i32, ptr %18, align 4
  %20 = getelementptr inbounds i8, ptr %6, i64 16
  %21 = load i32, ptr %20, align 8
  %22 = sext i32 %2 to i64
  %23 = getelementptr inbounds %"class.Register::RegisterImpl", ptr getelementptr inbounds (i8, ptr @all_RegisterImpls, i64 1), i64 %22
  %24 = ptrtoint ptr %23 to i64
  %25 = trunc i64 %24 to i32
  %26 = sub i32 %25, ptrtoint (ptr getelementptr inbounds (i8, ptr @all_RegisterImpls, i64 1) to i32)
  %27 = sext i32 %.sroa.01.0.copyload.i to i64
  %28 = getelementptr inbounds %"class.Register::RegisterImpl", ptr getelementptr inbounds (i8, ptr @all_RegisterImpls, i64 1), i64 %27
  %29 = ptrtoint ptr %28 to i64
  %30 = trunc i64 %29 to i32
  %31 = sub i32 %30, ptrtoint (ptr getelementptr inbounds (i8, ptr @all_RegisterImpls, i64 1) to i32)
  %32 = sext i32 %.sroa.0.0.copyload.i to i64
  %33 = getelementptr inbounds %"class.Register::RegisterImpl", ptr getelementptr inbounds (i8, ptr @all_RegisterImpls, i64 1), i64 %32
  %34 = ptrtoint ptr %33 to i64
  %35 = trunc i64 %34 to i32
  %36 = sub i32 %35, ptrtoint (ptr getelementptr inbounds (i8, ptr @all_RegisterImpls, i64 1) to i32)
  call void @_ZN9Assembler19emit_operand_helperEiiiN7Address11ScaleFactorEiRK16RelocationHolderi(ptr noundef nonnull readonly align 8 dereferenceable(40) %0, i32 noundef %26, i32 noundef %31, i32 noundef %36, i32 noundef %19, i32 noundef %21, ptr noundef nonnull align 8 dereferenceable(40) %12, i32 noundef 4)
  %37 = load ptr, ptr %7, align 8
  %38 = getelementptr inbounds i8, ptr %37, i64 16
  %39 = load ptr, ptr %38, align 8
  store i32 %4, ptr %39, align 1
  %40 = load ptr, ptr %38, align 8
  %41 = getelementptr inbounds i8, ptr %40, i64 4
  store ptr %41, ptr %38, align 8
  ret void
}